target datalayout = "e-m:e-p270:32:32-p271:32:32-p272:64:64-i64:64-i128:128-f80:128-n8:16:32:64-S128"
target triple = "x86_64-pc-linux-gnu"

%"class.Ipopt::StdInterfaceTNLP" = type { %"class.Ipopt::TNLP.base", %"class.Ipopt::SmartPtr", i32, i32, ptr, ptr, ptr, ptr, i32, i32, i32, ptr, ptr, ptr, ptr, ptr, ptr, ptr, ptr, ptr, ptr, ptr, double, ptr, ptr, ptr, ptr, ptr, ptr, ptr, ptr, ptr, ptr, ptr }
%"class.Ipopt::TNLP.base" = type { %"class.Ipopt::ReferencedObject.base" }
%"class.Ipopt::ReferencedObject.base" = type <{ ptr, i32 }>
%"class.Ipopt::SmartPtr" = type { ptr }

; Function Attrs: mustprogress nounwind uwtable
define noundef zeroext i1 @_ZN5Ipopt16StdInterfaceTNLP12get_nlp_infoERiS1_S1_S1_RNS_4TNLP14IndexStyleEnumE(ptr noundef nonnull align 8 dereferenceable(264) %0, ptr noundef nonnull align 4 dereferenceable(4) %1, ptr noundef nonnull align 4 dereferenceable(4) %2, ptr noundef nonnull align 4 dereferenceable(4) %3, ptr noundef nonnull align 4 dereferenceable(4) %4, ptr noundef nonnull align 4 dereferenceable(4) %5) unnamed_addr #1 align 2 {
  %7 = alloca ptr, align 8
  %8 = alloca ptr, align 8
  %9 = alloca ptr, align 8
  %10 = alloca ptr, align 8
  %11 = alloca ptr, align 8
  %12 = alloca ptr, align 8
  store ptr %0, ptr %7, align 8
  store ptr %1, ptr %8, align 8
  store ptr %2, ptr %9, align 8
  store ptr %3, ptr %10, align 8
  store ptr %4, ptr %11, align 8
  store ptr %5, ptr %12, align 8
  %13 = load ptr, ptr %7, align 8
  %14 = getelementptr inbounds %"class.Ipopt::StdInterfaceTNLP", ptr %13, i32 0, i32 2
  %15 = load i32, ptr %14, align 8
  %16 = load ptr, ptr %8, align 8
  store i32 %15, ptr %16, align 4
  %17 = getelementptr inbounds %"class.Ipopt::StdInterfaceTNLP", ptr %13, i32 0, i32 3
  %18 = load i32, ptr %17, align 4
  %19 = load ptr, ptr %9, align 8
  store i32 %18, ptr %19, align 4
  %20 = getelementptr inbounds %"class.Ipopt::StdInterfaceTNLP", ptr %13, i32 0, i32 8
  %21 = load i32, ptr %20, align 8
  %22 = load ptr, ptr %10, align 8
  store i32 %21, ptr %22, align 4
  %23 = getelementptr inbounds %"class.Ipopt::StdInterfaceTNLP", ptr %13, i32 0, i32 9
  %24 = load i32, ptr %23, align 4
  %25 = load ptr, ptr %11, align 8
  store i32 %24, ptr %25, align 4
  %26 = getelementptr inbounds %"class.Ipopt::StdInterfaceTNLP", ptr %13, i32 0, i32 10
  %27 = load i32, ptr %26, align 8
  %28 = icmp eq i32 %27, 0
  %29 = select i1 %28, i32 0, i32 1
  %30 = load ptr, ptr %12, align 8
  store i32 %29, ptr %30, align 4
  ret i1 true
}