; Function Attrs: mustprogress nofree norecurse nosync nounwind willreturn memory(argmem: readwrite) uwtable
define noundef zeroext i1 @_ZN5Ipopt16StdInterfaceTNLP12get_nlp_infoERiS1_S1_S1_RNS_4TNLP14IndexStyleEnumE(ptr nocapture noundef nonnull readonly align 8 dereferenceable(264) %0, ptr nocapture noundef nonnull writeonly align 4 dereferenceable(4) %1, ptr nocapture noundef nonnull writeonly align 4 dereferenceable(4) %2, ptr nocapture noundef nonnull writeonly align 4 dereferenceable(4) %3, ptr nocapture noundef nonnull writeonly align 4 dereferenceable(4) %4, ptr nocapture noundef nonnull writeonly align 4 dereferenceable(4) %5) unnamed_addr #6 align 2 {
  %7 = getelementptr inbounds i8, ptr %0, i64 24
  %8 = load i32, ptr %7, align 8
  store i32 %8, ptr %1, align 4
  %9 = getelementptr inbounds i8, ptr %0, i64 28
  %10 = load i32, ptr %9, align 4
  store i32 %10, ptr %2, align 4
  %11 = getelementptr inbounds i8, ptr %0, i64 64
  %12 = load i32, ptr %11, align 8
  store i32 %12, ptr %3, align 4
  %13 = getelementptr inbounds i8, ptr %0, i64 68
  %14 = load i32, ptr %13, align 4
  store i32 %14, ptr %4, align 4
  %15 = getelementptr inbounds i8, ptr %0, i64 72
  %16 = load i32, ptr %15, align 8
  %17 = icmp ne i32 %16, 0
  %18 = zext i1 %17 to i32
  store i32 %18, ptr %5, align 4
  ret i1 true
}